; Function Attrs: mustprogress nounwind uwtable
define hidden void @_ZN2cv8obsensor17V4L2StreamChannelD2Ev(ptr noundef nonnull align 8 dereferenceable(408) initializes((0, 8)) %0) unnamed_addr #6 align 2 personality ptr @__gxx_personality_v0 {
  store ptr getelementptr inbounds nuw inrange(-16, 80) (i8, ptr @_ZTVN2cv8obsensor17V4L2StreamChannelE, i64 16), ptr %0, align 8, !tbaa !34
  invoke void @_ZN2cv8obsensor17V4L2StreamChannel4stopEv(ptr noundef nonnull align 8 dereferenceable(408) %0)
          to label %2 unwind label %26

2:                                                ; preds = %1
  %3 = getelementptr inbounds nuw i8, ptr %0, i64 136
  %4 = load i32, ptr %3, align 8, !tbaa !176
  %.not = icmp eq i32 %4, 0
  br i1 %.not, label %8, label %5

5:                                                ; preds = %2
  %6 = invoke i32 @close(i32 noundef %4)
          to label %7 unwind label %26

7:                                                ; preds = %5
  store i32 -1, ptr %3, align 8, !tbaa !176
  br label %8

8:                                                ; preds = %7, %2
  %9 = getelementptr inbounds nuw i8, ptr %0, i64 384
  %10 = load ptr, ptr %9, align 8, !tbaa !212
  %.not.i.i.i = icmp eq ptr %10, null
  br i1 %.not.i.i.i, label %_ZNSt6vectorIhSaIhEED2Ev.exit, label %11

11:                                               ; preds = %8
  tail call void @_ZdlPv(ptr noundef nonnull %10) #28
  br label %_ZNSt6vectorIhSaIhEED2Ev.exit

_ZNSt6vectorIhSaIhEED2Ev.exit:                    ; preds = %8, %11
  %12 = getelementptr inbounds nuw i8, ptr %0, i64 360
  %13 = load ptr, ptr %12, align 8, !tbaa !212
  %.not.i.i.i1 = icmp eq ptr %13, null
  br i1 %.not.i.i.i1, label %_ZNSt6vectorIhSaIhEED2Ev.exit2, label %14

14:                                               ; preds = %_ZNSt6vectorIhSaIhEED2Ev.exit
  tail call void @_ZdlPv(ptr noundef nonnull %13) #28
  br label %_ZNSt6vectorIhSaIhEED2Ev.exit2

_ZNSt6vectorIhSaIhEED2Ev.exit2:                   ; preds = %_ZNSt6vectorIhSaIhEED2Ev.exit, %14
  %15 = getelementptr inbounds nuw i8, ptr %0, i64 328
  %16 = load ptr, ptr %15, align 8, !tbaa !213
  %.not.i = icmp eq ptr %16, null
  br i1 %.not.i, label %_ZNSt14_Function_baseD2Ev.exit, label %17

17:                                               ; preds = %_ZNSt6vectorIhSaIhEED2Ev.exit2
  %18 = getelementptr inbounds nuw i8, ptr %0, i64 312
  %19 = invoke noundef zeroext i1 %16(ptr noundef nonnull align 8 dereferenceable(32) %18, ptr noundef nonnull align 8 dereferenceable(32) %18, i32 noundef 3)
          to label %_ZNSt14_Function_baseD2Ev.exit unwind label %20

20:                                               ; preds = %17
  %21 = landingpad { ptr, i32 }
          catch ptr null
  %22 = extractvalue { ptr, i32 } %21, 0
  tail call void @__clang_call_terminate(ptr %22) #30
  unreachable

_ZNSt14_Function_baseD2Ev.exit:                   ; preds = %_ZNSt6vectorIhSaIhEED2Ev.exit2, %17
  %23 = getelementptr inbounds nuw i8, ptr %0, i64 304
  %.sroa.0.0.copyload.i.i = load i64, ptr %23, align 8, !tbaa !48
  %.not.i3 = icmp eq i64 %.sroa.0.0.copyload.i.i, 0
  br i1 %.not.i3, label %_ZNSt6threadD2Ev.exit, label %24

24:                                               ; preds = %_ZNSt14_Function_baseD2Ev.exit
  tail call void @_ZSt9terminatev() #30
  unreachable

_ZNSt6threadD2Ev.exit:                            ; preds = %_ZNSt14_Function_baseD2Ev.exit
  %25 = getelementptr inbounds nuw i8, ptr %0, i64 256
  tail call void @_ZNSt18condition_variableD1Ev(ptr noundef nonnull align 8 dereferenceable(48) %25) #26
  tail call void @_ZN2cv8obsensor17IUvcStreamChannelD2Ev(ptr noundef nonnull align 8 dereferenceable(136) %0) #26
  ret void

26:                                               ; preds = %5, %1
  %27 = landingpad { ptr, i32 }
          catch ptr null
  %28 = extractvalue { ptr, i32 } %27, 0
  tail call void @__clang_call_terminate(ptr %28) #30
  unreachable
}